	.section	__TEXT,__text,regular,pure_instructions
	.globl	_main
	.align	4, 0x90
_main:                                  ## @main
	.cfi_startproc
## BB#0:
	pushq	%rbp
Ltmp2:
	.cfi_def_cfa_offset 16
Ltmp3:
	.cfi_offset %rbp, -16
	movq	%rsp, %rbp
Ltmp4:
	.cfi_def_cfa_register %rbp
	subq	$32, %rsp
	movl	$0, -4(%rbp)
	movl	$3, -8(%rbp)
	movl	$4, -12(%rbp)
	movl	-8(%rbp), %edi
	movl	-12(%rbp), %esi
	callq	_addNumbers
	leaq	L_.str(%rip), %rdi
	movl	%eax, -16(%rbp)
	movl	-16(%rbp), %esi
	movb	$0, %al
	callq	_printf
	movl	$0, %esi
	movl	%eax, -20(%rbp)         ## 4-byte Spill
	movl	%esi, %eax
	addq	$32, %rsp
	popq	%rbp
	retq
	.cfi_endproc

	.globl	_addNumbers
	.align	4, 0x90
_addNumbers:                            ## @addNumbers
	.cfi_startproc
## BB#0:
	pushq	%rbp
Ltmp7:
	.cfi_def_cfa_offset 16
Ltmp8:
	.cfi_offset %rbp, -16
	movq	%rsp, %rbp
Ltmp9:
	.cfi_def_cfa_register %rbp
	movl	%edi, -4(%rbp)
	movl	%esi, -8(%rbp)
	movl	-4(%rbp), %esi
	addl	-8(%rbp), %esi
	movl	%esi, -12(%rbp)
	movl	-12(%rbp), %eax
	popq	%rbp
	retq
	.cfi_endproc

	.section	__TEXT,__cstring,cstring_literals
L_.str:                                 ## @.str
	.asciz	"Result %d"


.subsections_via_symbols
